; Function Attrs: mustprogress uwtable
define internal fastcc { i64, i32 } @_ZNK12_GLOBAL__N_123EngineParamTestTemplateINS_10TestParamsEE8GetParamEv() unnamed_addr #3 align 2 personality ptr @__gxx_personality_v0 {
entry:
  %ref.tmp.i = alloca %"class.testing::internal::GTestLog", align 4
  call void @llvm.lifetime.start.p0(i64 4, ptr nonnull %ref.tmp.i)
  %0 = load ptr, ptr @_ZN7testing18WithParamInterfaceIN12_GLOBAL__N_110TestParamsEE10parameter_E, align 8
  %cmp.i = icmp ne ptr %0, null
  %call.i = tail call noundef zeroext i1 @_ZN7testing8internal6IsTrueEb(i1 noundef zeroext %cmp.i)
  br i1 %call.i, label %_ZN7testing18WithParamInterfaceIN12_GLOBAL__N_110TestParamsEE8GetParamEv.exit, label %if.else.i

if.else.i:                                        ; preds = %entry
  call void @_ZN7testing8internal8GTestLogC1ENS0_16GTestLogSeverityEPKci(ptr noundef nonnull align 4 dereferenceable(4) %ref.tmp.i, i32 noundef 3, ptr noundef nonnull @.str.7, i32 noundef 1681)
  %call3.i = invoke noundef nonnull align 8 dereferenceable(8) ptr @_ZStlsISt11char_traitsIcEERSt13basic_ostreamIcT_ES5_PKc(ptr noundef nonnull align 8 dereferenceable(8) @_ZSt4cerr, ptr noundef nonnull @.str.8)
          to label %invoke.cont2.i unwind label %lpad.i

invoke.cont2.i:                                   ; preds = %if.else.i
  %call5.i = invoke noundef nonnull align 8 dereferenceable(8) ptr @_ZStlsISt11char_traitsIcEERSt13basic_ostreamIcT_ES5_PKc(ptr noundef nonnull align 8 dereferenceable(8) %call3.i, ptr noundef nonnull @.str.9)
          to label %invoke.cont4.i unwind label %lpad.i

invoke.cont4.i:                                   ; preds = %invoke.cont2.i
  %call7.i = invoke noundef nonnull align 8 dereferenceable(8) ptr @_ZStlsISt11char_traitsIcEERSt13basic_ostreamIcT_ES5_PKc(ptr noundef nonnull align 8 dereferenceable(8) %call5.i, ptr noundef nonnull @.str.10)
          to label %invoke.cont6.i unwind label %lpad.i

invoke.cont6.i:                                   ; preds = %invoke.cont4.i
  call void @_ZN7testing8internal8GTestLogD1Ev(ptr noundef nonnull align 4 dereferenceable(4) %ref.tmp.i) #26
  br label %_ZN7testing18WithParamInterfaceIN12_GLOBAL__N_110TestParamsEE8GetParamEv.exit

lpad.i:                                           ; preds = %invoke.cont4.i, %invoke.cont2.i, %if.else.i
  %1 = landingpad { ptr, i32 }
          cleanup
  call void @_ZN7testing8internal8GTestLogD1Ev(ptr noundef nonnull align 4 dereferenceable(4) %ref.tmp.i) #26
  resume { ptr, i32 } %1

_ZN7testing18WithParamInterfaceIN12_GLOBAL__N_110TestParamsEE8GetParamEv.exit: ; preds = %entry, %invoke.cont6.i
  %2 = load ptr, ptr @_ZN7testing18WithParamInterfaceIN12_GLOBAL__N_110TestParamsEE10parameter_E, align 8
  call void @llvm.lifetime.end.p0(i64 4, ptr nonnull %ref.tmp.i)
  %retval.sroa.0.0.copyload = load i64, ptr %2, align 4
  %retval.sroa.2.0.call.sroa_idx = getelementptr inbounds i8, ptr %2, i64 8
  %retval.sroa.2.0.copyload = load i32, ptr %retval.sroa.2.0.call.sroa_idx, align 4
  %.fca.0.insert = insertvalue { i64, i32 } poison, i64 %retval.sroa.0.0.copyload, 0
  %.fca.1.insert = insertvalue { i64, i32 } %.fca.0.insert, i32 %retval.sroa.2.0.copyload, 1
  ret { i64, i32 } %.fca.1.insert
}